MPASM 5.84             NEWPIC_8B_GENERAL.ASM   4-4-2023  16:55:43         PAGE  1


LOC  OBJECT CODE     LINE SOURCE TEXT
  VALUE

                      00001 ;*******************************************************************************
                      00002 ; MAIN PROGRAM  P2_FA
                      00003 ;*******************************************************************************
                      00004 
Warning[215]: Processor superseded by command line.  Verify processor symbol.
                      00005     LIST P=PIC18F4321   F=INHX32
                      00006     #include <p18f4321.inc>
                      00001         LIST
                      00002 
                      00003 ;==========================================================================
                      00004 ; Build date : Mar 17 2019
                      00005 ;  MPASM PIC18F4321 processor include
                      00006 ; 
                      00007 ;  (c) Copyright 1999-2019 Microchip Technology, All rights reserved
                      00008 ;==========================================================================
                      00009 
                      01455         LIST
                      00007     
                      00008 ; CONFIGS ----------------------------------------------------------------------
                      00009     
                      00010     CONFIG  OSC=HSPLL   ; L'oscil.lador (10MHz x 4 = 40MHz) --> Tinst = 1 / (40MHz) = 25nS
                      00011     CONFIG  PBADEN=DIG  ; Volem que el PORTB sigui DIGital
                      00012     CONFIG  WDT=OFF     ; Desactivem el Watch Dog Timer
                      00013     CONFIG  LVP=OFF
                      00014     
                      00015 ; VARIABLES --------------------------------------------------------------------
                      00016 
  00000001            00017 MODE_ACTUAL         EQU 0x01        ; Guardem el Mode Actual
  00000002            00018 M_MANUAL            EQU 0x02        ; Variable de Mode Manual
  00000003            00019 M_CREUER            EQU 0x03        ; Variable de Mode Creuer
  00000004            00020 M_RECORD            EQU 0x04        ; Variable de Mode Record
  00000005            00021 M_PILOT             EQU 0x05        ; Variable de Mode Pilot Automàtic
  00000006            00022 POS_JOY             EQU 0x06        ; Posició Joystick
  00000007            00023 JOYx_POS            EQU 0x07        ; Posició Joystick DIR
  00000008            00024 JOYy_POS            EQU 0x08        ; Posició Joystick VEL
  00000009            00025 POS_SERVO           EQU 0x09        ; Posició Servo
  00000010            00026 INC_PWM             EQU 0x10        ; Increment PWM
  00000011            00027 LOW_TIME_S          EQU 0x11        ; Temps a 0 PWM Servomotor
  00000012            00028 HIGH_TIME_S         EQU 0x12        ; Temps a 1 PWM Servomotor
  00000013            00029 LOW_TIME_M          EQU 0x13        ; Temps a 0 PWM Motor DC
  00000014            00030 HIGH_TIME_M         EQU 0x14        ; Temps a 1 PWM Motor DC
  00000015            00031 LOW_TIME_aux        EQU 0x15        ; Auxiliar PWM Motor
  00000016            00032 VEL_ACTUAL          EQU 0x16        ; Velocitat actual Motor DC
  00000017            00033 UP_DOWN             EQU 0x17        ; Direcció Motor DC (Endavant/Enrrere)
  00000018            00034 POS_RAM             EQU 0x18        ; Úiltima posicio escrita de la RAM
  00000029            00035 POS_RAM_AUX         EQU 0x29        ; Auxiliar posició RAM
  00000030            00036 HYPHEN              EQU 0x30        ; ASCII Hyphen (Guión)
  00000031            00037 REBOTS              EQU 0x31        ; Control de Rebots
  00000032            00038 COUNT_1S            EQU 0x32        ; Counter per comptar 1 segon
  00000033            00039 COUNT_ALARM         EQU 0x33        ; Counter per fer Alarm 1/2 segon
  00000034            00040 DELAY               EQU 0x34        ; Delay entre Save
  00000035            00041 DELAY_AUX           EQU 0x35        ; Auxiliar Delay Save
  00000037            00042 COUNT_1M            EQU 0x37        ; Count per comptar 1 minut Record
MPASM 5.84             NEWPIC_8B_GENERAL.ASM   4-4-2023  16:55:43         PAGE  2


LOC  OBJECT CODE     LINE SOURCE TEXT
  VALUE

  00000038            00043 COUNT_AUX           EQU 0x38        ; Auxiliar del count 1 minut Record
  00000039            00044 EPILEPSY            EQU 0x39        ; Count de Led ALARM
  00000040            00045 COUNT_BOSS          EQU 0x40        ; Count 1 minut Alarm
  00000041            00046 FINAL_BOSS          EQU 0x41        ; Variable controla inactivitat 1min
  00000042            00047 POS_ACTUAL          EQU 0x42        ; Rang de posició del Servo     
                      00048             
                      00049             
  00000019            00050 NUM7                EQU 0x19        ; Número a mostrar al 7-Segments
  00000020            00051 TAULA7S             EQU 0X20        ; Taula 7-Segments
                      00052                     
                      00053     ORG 0x0000
000000 EF?? F???      00054     GOTO    MAIN
                      00055     ORG 0x0008
000008 EF?? F???      00056     GOTO    HIGH_RSI
                      00057     ORG 0x0018
000018 0011           00058     RETFIE  FAST
                      00059     
                      00060     ORG TAULA7S
                      00061     ;Segments del 0, segments del L
000020 383F           00062     DB 0x3F, 0x38
                      00063     ;Segments del M, segments del H
000022 7637           00064     DB 0x37, 0x76
                      00065     
                      00066 ;*******************************************************************************
                      00067 ; INICIALITZACIONS
                      00068 ;*******************************************************************************
                      00069     
000024                00070 INIT_PORTS   ; Configura els ports I/O
                      00071     ; PORTA
000024 8092           00072     BSF     TRISA,0,0       ; Configurem el bit AN0 d'entrada   (ADC Joystick eix X)
000026 8292           00073     BSF     TRISA,1,0       ; Configurem el bit AN1 d'entrada   (ADC Joystick eix Y)
000028 9492           00074     BCF     TRISA,2,0       ; Configurem el bit RA2 de sortida  (LED RGB ManualMode)
00002A 9692           00075     BCF     TRISA,3,0       ; Configurem el bit RA3 de sortida  (LED RGB CreuerMode)
00002C 9892           00076     BCF     TRISA,4,0       ; Configurem el bit RA4 de sortida  (LED Alarm)
00002E 9A92           00077     BCF     TRISA,5,0       ; Configurem el bit RA5 de sortida  (LED RGB RecordMode)
000030 6A89           00078     CLRF    LATA,0
                      00079     ; PORTB
000032 8093           00080     BSF     TRISB,0,0       ; Configurem el bit RB0 d'entrada   (Manual/Creuer Mode)
000034 8293           00081     BSF     TRISB,1,0       ; Configurem el bit RB1 d'entrada   (RecordMode)
000036 8493           00082     BSF     TRISB,2,0       ; Configurem el bit RB2 d'entrada   (Save)
000038 9693           00083     BCF     TRISB,3,0       ; Configurem el bit RB3 de sortida  (LED CurrentDir[9])
00003A 9893           00084     BCF     TRISB,4,0       ; Configurem el bit RB4 de sortida  (PWM DIR)
00003C 968A           00085     BCF     LATB,3,0
00003E 9A93           00086     BCF     TRISB,5,0
000040 9EF1           00087     BCF     INTCON2,RBPU,0  ; Activem els pull-ups del port B.
                      00088     ; PORTC
000042 6A94           00089     CLRF    TRISC,0         ; Configurem port C de sortida  (LED CurrentDir[7..0])
000044 6A8B           00090     CLRF    LATC,0
                      00091     ; PORTD
000046 6A95           00092     CLRF    TRISD,0         ; Configurem port D de sortida  (7S CurrentSpeed[6..0])
000048 6A8C           00093     CLRF    LATD,0
                      00094     ; PORTE
00004A 9096           00095     BCF     TRISE,0,0       ; Configurem el bit RE0 de sortida  (LED CurrentDir[8])
MPASM 5.84             NEWPIC_8B_GENERAL.ASM   4-4-2023  16:55:43         PAGE  3


LOC  OBJECT CODE     LINE SOURCE TEXT
  VALUE

00004C 9296           00096     BCF     TRISE,1,0       ; Configurem el bit RE1 de sortida  (PWM Speed_UP)
00004E 9496           00097     BCF     TRISE,2,0       ; Configurem el bit RE2 de sortida  (PWM Speed_DOWN)
000050 6A8D           00098     CLRF    LATE,0
000052 0012           00099     RETURN
                      00100     
000054                00101 INIT_INTERRUPTS             ; Activamos las interrupciones
000054 9ED0           00102     BCF RCON,IPEN,0         
000056 8EF2           00103     BSF INTCON,GIE,0
000058 8CF2           00104     BSF INTCON,PEIE,0
00005A 8AF2           00105     BSF INTCON,TMR0IE,0     ; Timer0
00005C 0012           00106     RETURN
                      00107     
00005E                00108 INIT_VARS
00005E 0E00           00109     MOVLW   .0      ; Mode Actual
000060 6E01           00110     MOVWF   MODE_ACTUAL,0
000062 0E00           00111     MOVLW   .0      ; Mode Manual
000064 6E02           00112     MOVWF   M_MANUAL,0
000066 0E01           00113     MOVLW   .1      ; Mode Creuer
000068 6E03           00114     MOVWF   M_CREUER,0
00006A 0E02           00115     MOVLW   .2      ; Mode Record
00006C 6E04           00116     MOVWF   M_RECORD,0
00006E 0E03           00117     MOVLW   .3      ; Mode Pilot Automàtic
000070 6E05           00118     MOVWF   M_PILOT,0
                      00119     
000072 6A06           00120     CLRF    POS_JOY,0
000074 6A09           00121     CLRF    POS_SERVO,0
000076 6A19           00122     CLRF    NUM7,0
000078 6A16           00123     CLRF    VEL_ACTUAL,0 
00007A 6A12           00124     CLRF    HIGH_TIME_S,0
00007C 6A11           00125     CLRF    LOW_TIME_S,0
00007E 6A14           00126     CLRF    HIGH_TIME_M,0
000080 6A13           00127     CLRF    LOW_TIME_M,0
000082 6A18           00128     CLRF    POS_RAM,0
000084 6A29           00129     CLRF    POS_RAM_AUX,0
000086 6A32           00130     CLRF    COUNT_1S,0
000088 6A33           00131     CLRF    COUNT_ALARM,0
00008A 6A34           00132     CLRF    DELAY,0
00008C 6A35           00133     CLRF    DELAY_AUX,0
00008E 6A37           00134     CLRF    COUNT_1M,0
000090 6A38           00135     CLRF    COUNT_AUX,0
000092 6A39           00136     CLRF    EPILEPSY,0
000094 6A42           00137     CLRF    POS_ACTUAL,0
                      00138     
000096 6A40           00139     CLRF    COUNT_BOSS,0
000098 6A41           00140     CLRF    FINAL_BOSS,0
                      00141 
00009A 0E2D           00142     MOVLW   .45
00009C 6E30           00143     MOVWF   HYPHEN
00009E 0012           00144     RETURN
                      00145     
0000A0                00146 INIT_ADC ; Configura el módul A/D
0000A0 0E01           00147     MOVLW   b'00000001' ; A/D Input channel
0000A2 6EC2           00148     MOVWF   ADCON0,0
MPASM 5.84             NEWPIC_8B_GENERAL.ASM   4-4-2023  16:55:43         PAGE  4


LOC  OBJECT CODE     LINE SOURCE TEXT
  VALUE

0000A4 0E0E           00149     MOVLW   b'00001110' ; A/D Adquisition time
0000A6 6EC1           00150     MOVWF   ADCON1,0
0000A8 0E09           00151     MOVLW   b'00001001' ; A/D Conversion time
0000AA 6EC0           00152     MOVWF   ADCON2,0
0000AC 0012           00153     RETURN
                      00154     
0000AE                00155 INIT_T0 ; Congigura Timer0 -->  65536 - (T * fosc) / (4 * prescaler) --> 65536 - (0.02 * 40MHz) / (4 * 2
                            56) = 31250
0000AE 0E91           00156     MOVLW   b'10010001'     ; Valores TOCON
0000B0 6ED5           00157     MOVWF   T0CON,0
0000B2 0E3C           00158     MOVLW   HIGH(.15536)    ; Carga el byte más significativo del valor en TMR0
0000B4 6ED7           00159     MOVWF   TMR0H,0
0000B6 0EB0           00160     MOVLW   LOW(.15536)     ; Carga el byte menos significativo del valor en TMR0
0000B8 6ED6           00161     MOVWF   TMR0L,0
0000BA 0012           00162     RETURN 
                      00163     
0000BC                00164 INIT_POINTERS   ; Iniciem el punter de la taula Flash
0000BC 6AF8           00165     CLRF    TBLPTRU,0
0000BE 6AF7           00166     CLRF    TBLPTRH,0
0000C0 0E20           00167     MOVLW   TAULA7S
0000C2 6EF6           00168     MOVWF   TBLPTRL,0
0000C4 0008           00169     TBLRD*
0000C6 CFF5 FF8C      00170     MOVFF   TABLAT,LATD
0000CA 0012           00171     RETURN    
                      00172     
                      00173 ;*******************************************************************************
                      00174 ; INTERRUPCIONS
                      00175 ;*******************************************************************************
                      00176     
0000CC                00177 VEL_DIRECCIO    ; Determina la direcció del Motor AC
0000CC 0E01           00178     MOVLW   .1
0000CE 6217           00179     CPFSEQ  UP_DOWN,0
0000D0 828D           00180     BSF     LATE,1,0
0000D2 0E00           00181     MOVLW   .0
0000D4 6217           00182     CPFSEQ  UP_DOWN,0
0000D6 848D           00183     BSF     LATE,2,0
0000D8 0012           00184     RETURN
                      00185     
0000DA                00186 TIME_VEL_0  ; DC: 2,5%
0000DA 0EFA           00187     MOVLW   .250
0000DC 5214           00188     MOVF    HIGH_TIME_M
0000DE 0E05           00189     MOVLW   .5
0000E0 5213           00190     MOVF    LOW_TIME_M
0000E2 C013 F015      00191     MOVFF   LOW_TIME_M,LOW_TIME_aux
0000E6 828D           00192     BSF     LATE,1,0
0000E8 EF?? F???      00193     GOTO    LOOP_MOTOR
                      00194     
0000EC                00195 TIME_VEL_1  ; DC: 25%
0000EC EC?? F???      00196     CALL    VEL_DIRECCIO
0000F0 0EBE           00197     MOVLW   .190
0000F2 5214           00198     MOVF    HIGH_TIME_M
0000F4 0E41           00199     MOVLW   .65
0000F6 5213           00200     MOVF    LOW_TIME_M
MPASM 5.84             NEWPIC_8B_GENERAL.ASM   4-4-2023  16:55:43         PAGE  5


LOC  OBJECT CODE     LINE SOURCE TEXT
  VALUE

0000F8 C013 F015      00201     MOVFF   LOW_TIME_M,LOW_TIME_aux
0000FC EF?? F???      00202     GOTO    LOOP_MOTOR
                      00203     
000100                00204 TIME_VEL_2  ; DC: 50%
000100 EC?? F???      00205     CALL    VEL_DIRECCIO
000104 0E7F           00206     MOVLW   .127
000106 5214           00207     MOVF    HIGH_TIME_M
000108 0E80           00208     MOVLW   .128
00010A 5213           00209     MOVF    LOW_TIME_M
00010C C013 F015      00210     MOVFF   LOW_TIME_M,LOW_TIME_aux
000110 EF?? F???      00211     GOTO    LOOP_MOTOR
                      00212     
000114                00213 TIME_VEL_3  ; DC: 75%
000114 EC?? F???      00214     CALL    VEL_DIRECCIO
000118 0E3F           00215     MOVLW   .63
00011A 5214           00216     MOVF    HIGH_TIME_M
00011C 0EC0           00217     MOVLW   .192
00011E 5213           00218     MOVF    LOW_TIME_M
000120 C013 F015      00219     MOVFF   LOW_TIME_M,LOW_TIME_aux
000124 EF?? F???      00220     GOTO    LOOP_MOTOR
                      00221         
000128                00222 MOVE_SERVO  ; Determina la posició del Servomotor
000128 0E28           00223     MOVLW   .40
                      00224     ;MOVLW   .36
00012A 6E10           00225     MOVWF   INC_PWM
00012C                00226 LOOP_INC_PWM:
00012C 2E10           00227     DECFSZ  INC_PWM,1,0
00012E EF?? F???      00228     GOTO    LOOP_INC_PWM
000132 2E09           00229     DECFSZ  POS_SERVO,1,0
000134 EF?? F???      00230     GOTO    MOVE_SERVO  
000138 0012           00231     RETURN
                      00232     
00013A                00233 PARTY   ; Toggle LED Alarm
00013A 7889           00234     BTG     LATA,4,0
00013C 6A39           00235     CLRF    EPILEPSY,0
00013E 0012           00236     RETURN
                      00237     
000140                00238 FINAL_FIGHT2    ; Quan EPILEPSY arriba a 0,5 segons anem al toggle (bucle 1 min)
000140 0E19           00239     MOVLW   .25
000142 6039           00240     CPFSLT  EPILEPSY,0
000144 EC?? F???      00241     CALL    PARTY
                      00242     
000148 0E0C           00243     MOVLW   .12 ; Quan cambiem de mode o fem algo, sortim del bucle
00014A 6041           00244     CPFSLT  FINAL_BOSS,0
00014C 0012           00245     RETURN
00014E EF?? F???      00246     GOTO    FINAL_FIGHT2
                      00247     
000152                00248 INCREMENT_COUNT
000152 2A37           00249     INCF    COUNT_1M,1,0
000154 6A34           00250     CLRF    DELAY,0
000156 0012           00251     RETURN
                      00252    
000158                00253 INCREMENT_BOSS
MPASM 5.84             NEWPIC_8B_GENERAL.ASM   4-4-2023  16:55:43         PAGE  6


LOC  OBJECT CODE     LINE SOURCE TEXT
  VALUE

000158 2A41           00254     INCF    FINAL_BOSS,1,0
00015A 6A40           00255     CLRF    COUNT_BOSS,0
00015C 0012           00256     RETURN
                      00257 
00015E                00258 HIGH_RSI     ; Quan detectem una interrupció, baixem el flag i anem a al procediment adecuat.
00015E B4F2           00259     BTFSC   INTCON,TMR0IF
000160 EF?? F???      00260     GOTO    RSI_T0
000164 0011           00261     RETFIE  FAST   
                      00262     
000166                00263 RSI_T0      ; Interrupción T0
                      00264     ; Resetejem el T0
000166 0E3C           00265     MOVLW   HIGH(.15536)
000168 6ED7           00266     MOVWF   TMR0H,0
00016A 0EB0           00267     MOVLW   LOW(.15536)
00016C 6ED6           00268     MOVWF   TMR0L,0
00016E 94F2           00269     BCF     INTCON,TMR0IF,0
                      00270     
000170 2A34           00271     INCF    DELAY,1,0
000172 2A40           00272     INCF    COUNT_BOSS,1,0
000174 2A31           00273     INCF    REBOTS,1,0
000176 2A32           00274     INCF    COUNT_1S,1,0
000178 2A33           00275     INCF    COUNT_ALARM,1,0
00017A 2A39           00276     INCF    EPILEPSY,1,0
                      00277  
00017C 0EFA           00278     MOVLW   .250
00017E 6034           00279     CPFSLT  DELAY,0
000180 EC?? F???      00280     CALL    INCREMENT_COUNT
                      00281     
000184 0EFA           00282     MOVLW   .250
000186 6040           00283     CPFSLT  COUNT_BOSS,0
000188 EC?? F???      00284     CALL    INCREMENT_BOSS
                      00285     
00018C 0E0C           00286     MOVLW   .12
00018E 6041           00287     CPFSLT  FINAL_BOSS,0
000190 EC?? F???      00288     CALL    FINAL_FIGHT2
                      00289     
                      00290     ; PWM Servomotor
000194 0EA5           00291     MOVLW   .165   
000196 6E11           00292     MOVWF   LOW_TIME_S
000198 0E0A           00293     MOVLW   .10          
00019A 6E12           00294     MOVWF   HIGH_TIME_S
                      00295     
00019C 888A           00296     BSF     LATB,4,0            ; PWM DIR - 1
00019E                00297 LOOP_SERVO:     ; Determinem el temps a 1 del nostre senyal PWM.
00019E 2E11           00298     DECFSZ  LOW_TIME_S,1,0
0001A0 EF?? F???      00299     GOTO    LOOP_SERVO
0001A4 0EA5           00300     MOVLW   .165
0001A6 6E11           00301     MOVWF   LOW_TIME_S
0001A8 2E12           00302     DECFSZ  HIGH_TIME_S,1,0
0001AA EF?? F???      00303     GOTO    LOOP_SERVO
0001AE EC?? F???      00304     CALL    MOVE_SERVO
0001B2 988A           00305     BCF     LATB,4,0            ; PWM DIR - 0
                      00306     
MPASM 5.84             NEWPIC_8B_GENERAL.ASM   4-4-2023  16:55:43         PAGE  7


LOC  OBJECT CODE     LINE SOURCE TEXT
  VALUE

                      00307     ; PWM Motor DC    
0001B4 0E03           00308     MOVLW   .3
0001B6 6016           00309     CPFSLT  VEL_ACTUAL,0
0001B8 EF?? F???      00310     GOTO    TIME_VEL_3  
0001BC 0E02           00311     MOVLW   .2
0001BE 6016           00312     CPFSLT  VEL_ACTUAL,0
0001C0 EF?? F???      00313     GOTO    TIME_VEL_2
0001C4 0E01           00314     MOVLW   .1
0001C6 6016           00315     CPFSLT  VEL_ACTUAL,0
0001C8 EF?? F???      00316     GOTO    TIME_VEL_1
                      00317 
0001CC EF?? F???      00318     GOTO    TIME_VEL_0    
                      00319         
0001D0                00320 LOOP_MOTOR:
0001D0 2E13           00321     DECFSZ  LOW_TIME_M,1,0
0001D2 EF?? F???      00322     GOTO    LOOP_MOTOR
0001D6 5215           00323     MOVF    LOW_TIME_aux
0001D8 6E13           00324     MOVWF   LOW_TIME_M
0001DA 2E14           00325     DECFSZ  HIGH_TIME_M,1,0
0001DC EF?? F???      00326     GOTO    LOOP_MOTOR
0001E0 928D           00327     BCF     LATE,1,0
0001E2 948D           00328     BCF     LATE,2,0
                      00329     
0001E4 0011           00330     RETFIE FAST
                      00331     
                      00332 ;*******************************************************************************
                      00333 ; PROCEDIMENTS
                      00334 ;*******************************************************************************
                      00335     
0001E6                00336 SAVE_ROUTE       
0001E6 7A8A           00337     BTG     LATB,5,0
                      00338 
0001E8 C037 FFEE      00339     MOVFF   COUNT_1M,POSTINC0    
0001EC 2A18           00340     INCF    POS_RAM,1,0
0001EE C034 FFEE      00341     MOVFF   DELAY,POSTINC0    
0001F2 2A18           00342     INCF    POS_RAM,1,0
0001F4 C007 FFEE      00343     MOVFF   JOYx_POS,POSTINC0
0001F8 2A18           00344     INCF    POS_RAM,1,0
0001FA C008 FFEE      00345     MOVFF   JOYy_POS,POSTINC0
0001FE 2A18           00346     INCF    POS_RAM,1,0
                      00347     
000200 6AD6           00348     CLRF    TMR0,0
000202 6A34           00349     CLRF    DELAY,0
000204 6A37           00350     CLRF    COUNT_1M,0
                      00351     
000206 0E78           00352     MOVLW   .120
000208 6018           00353     CPFSLT  POS_RAM,0
00020A EF?? F???      00354     GOTO    MODE_MANUAL     ; SKIP
                      00355     
00020E 0012           00356     RETURN
                      00357     
000210                00358 READ_RAM       
000210 EC?? F???      00359     CALL    ESPERA_REBOTS
MPASM 5.84             NEWPIC_8B_GENERAL.ASM   4-4-2023  16:55:43         PAGE  8


LOC  OBJECT CODE     LINE SOURCE TEXT
  VALUE

                      00360 
000214 CFEE F038      00361     MOVFF   POSTINC0,COUNT_AUX
000218 2A29           00362     INCF    POS_RAM_AUX,1,0  
00021A CFEE F035      00363     MOVFF   POSTINC0,DELAY_AUX
00021E 2A29           00364     INCF    POS_RAM_AUX,1,0  
000220 CFEE F007      00365     MOVFF   POSTINC0,JOYx_POS
000224 2A29           00366     INCF    POS_RAM_AUX,1,0
000226 CFEE F008      00367     MOVFF   POSTINC0,JOYy_POS
00022A 2A29           00368     INCF    POS_RAM_AUX,1,0
                      00369     
00022C 6A34           00370     CLRF    DELAY,0
00022E 6A37           00371     CLRF    COUNT_1M,0
000230 6AD6           00372     CLRF    TMR0,0
000232                00373 WAIT_COUNT:
000232 5038           00374     MOVF    COUNT_AUX,0
000234 6237           00375     CPFSEQ  COUNT_1M,0
000236 EF?? F???      00376     GOTO    WAIT_COUNT
00023A                00377 WAIT_DELAY:
00023A 5035           00378     MOVF    DELAY_AUX,0
00023C 6234           00379     CPFSEQ  DELAY,0
00023E EF?? F???      00380     GOTO    WAIT_DELAY
                      00381     
000242 7A8A           00382     BTG     LATB,5,0
                      00383     
000244 EC?? F???      00384     CALL    LEDS_CONTROL
000248 EC?? F???      00385     CALL    DIR_SERVO
00024C EC?? F???      00386     CALL    VEL_7S
                      00387     
000250 5018           00388     MOVF    POS_RAM,0
000252 6229           00389     CPFSEQ  POS_RAM_AUX,0
000254 EF?? F???      00390     GOTO    READ_RAM
000258 0012           00391     RETURN
                      00392     
00025A                00393 TOGGLE_MANUAL   ; Si estem en ModeManual, anirem a ModeCreuer i viceversa.
00025A 5001           00394     MOVF    MODE_ACTUAL,0
00025C 6002           00395     CPFSLT  M_MANUAL,0
00025E EF?? F???      00396     GOTO    MODE_CREUER
000262 6003           00397     CPFSLT  M_CREUER,0
000264 EF?? F???      00398     GOTO    MODE_MANUAL
000268 6004           00399     CPFSLT  M_RECORD,0
00026A EF?? F???      00400     GOTO    MODE_RECORD
00026E EF?? F???      00401     GOTO    MODE_PILOT
                      00402     
000272                00403 PRE_RECORD
000272 EC?? F???      00404     CALL    INIT_RAM
000276 6A34           00405     CLRF    DELAY,0
000278 6A37           00406     CLRF    COUNT_1M,0
00027A 6AD6           00407     CLRF    TMR0,0
00027C EF?? F???      00408     GOTO    MODE_RECORD
                      00409     
000280                00410 TOGGLE_RECORD   
000280 5001           00411     MOVF    MODE_ACTUAL,0
000282 6002           00412     CPFSLT  M_MANUAL,0
MPASM 5.84             NEWPIC_8B_GENERAL.ASM   4-4-2023  16:55:43         PAGE  9


LOC  OBJECT CODE     LINE SOURCE TEXT
  VALUE

000284 EF?? F???      00413     GOTO    PRE_RECORD
000288 6003           00414     CPFSLT  M_CREUER,0
00028A EF?? F???      00415     GOTO    MODE_CREUER
00028E EF?? F???      00416     GOTO    MODE_MANUAL
                      00417     
000292                00418 CHECK_RECORD
000292 5001           00419     MOVF    MODE_ACTUAL,0
000294 6202           00420     CPFSEQ  M_MANUAL,0
000296 EF?? F???      00421     GOTO    TOGGLE_RECORD
00029A EF?? F???      00422     GOTO    MODE_PILOT
                      00423     
00029E                00424 ESPERA_REBOTS
00029E 6A41           00425     CLRF    FINAL_BOSS,0
0002A0 6A40           00426     CLRF    COUNT_BOSS,0
                      00427     
0002A2 6A31           00428     CLRF    REBOTS,0
0002A4 6AD6           00429     CLRF    TMR0,0
0002A6                00430 ESPERA:
0002A6 0E01           00431     MOVLW   .1
0002A8 6231           00432     CPFSEQ  REBOTS,0
0002AA EF?? F???      00433     GOTO    ESPERA
0002AE 0012           00434     RETURN
                      00435 
0002B0                00436 REBOTS_MANUAL   ; Controla els rebots del botó ToggleManualMode
0002B0 EC?? F???      00437     CALL    ESPERA_REBOTS
0002B4                00438 WAIT_MANUAL
0002B4 A081           00439     BTFSS   PORTB,0,0           ; Comprovem si segueix polsat el botó.
0002B6 EF?? F???      00440     GOTO    WAIT_MANUAL
0002BA EC?? F???      00441     CALL    ESPERA_REBOTS
0002BE EF?? F???      00442     GOTO    TOGGLE_MANUAL
                      00443     
0002C2                00444 REBOTS_RECORD   ; Controla els rebots del botó ToggleRecordMode
0002C2 6A32           00445     CLRF    COUNT_1S,0
0002C4 EC?? F???      00446     CALL    ESPERA_REBOTS
0002C8                00447 WAIT_RECORD
0002C8 A281           00448     BTFSS   PORTB,1,0           ; Comprovem si segueix polsat el botó.
0002CA EF?? F???      00449     GOTO    WAIT_RECORD
0002CE EC?? F???      00450     CALL    ESPERA_REBOTS
0002D2 0E32           00451     MOVLW   .50
0002D4 6032           00452     CPFSLT  COUNT_1S,0
0002D6 EF?? F???      00453     GOTO    CHECK_RECORD
0002DA EF?? F???      00454     GOTO    TOGGLE_RECORD
                      00455     
0002DE                00456 REBOTS_SAVE     ; Controla els rebots del botó ToggleRecordMode
0002DE EC?? F???      00457     CALL    ESPERA_REBOTS
0002E2                00458 WAIT_SAVE
0002E2 A481           00459     BTFSS   PORTB,2,0           ; Comprovem si segueix polsat el botó.
0002E4 EF?? F???      00460     GOTO    WAIT_SAVE
0002E8 EC?? F???      00461     CALL    ESPERA_REBOTS
0002EC EC?? F???      00462     CALL    SAVE_ROUTE
0002F0 0012           00463     RETURN
                      00464     
                      00465 ; Control Velocitat ------------------------------------------------------------
MPASM 5.84             NEWPIC_8B_GENERAL.ASM   4-4-2023  16:55:43         PAGE 10


LOC  OBJECT CODE     LINE SOURCE TEXT
  VALUE

                      00466     
0002F2                00467 CLEAR_MINUT
0002F2 6A40           00468     CLRF    COUNT_BOSS,0
0002F4 6A41           00469     CLRF    FINAL_BOSS,0
0002F6 0012           00470     RETURN
                      00471     
0002F8                00472 CLEAR_MINUT2
0002F8 6A40           00473     CLRF    COUNT_BOSS,0
0002FA 6A41           00474     CLRF    FINAL_BOSS,0
                      00475     
0002FC 6A8B           00476     CLRF    LATC,0
0002FE 908D           00477     BCF     LATE,0,0
000300 968A           00478     BCF     LATB,3,0
000302 0012           00479     RETURN
                      00480     
000304                00481 VEL_0
000304 0E0B           00482     MOVLW   .11
000306 6441           00483     CPFSGT  FINAL_BOSS,0
000308 9889           00484     BCF     LATA,4,0
                      00485     
00030A 0E00           00486     MOVLW   .0
00030C 6216           00487     CPFSEQ  VEL_ACTUAL
00030E EC?? F???      00488     CALL    CLEAR_MINUT
                      00489     
000312 0E00           00490     MOVLW   .0
000314 6E17           00491     MOVWF   UP_DOWN
000316 0E00           00492     MOVLW   .0
000318 6E16           00493     MOVWF   VEL_ACTUAL
00031A EF?? F???      00494     GOTO    SHOW_VEL_7S
00031E                00495 VEL_1
00031E 0E0B           00496     MOVLW   .11
000320 6441           00497     CPFSGT  FINAL_BOSS,0
000322 8889           00498     BSF     LATA,4,0
                      00499     
000324 0E01           00500     MOVLW   .1
000326 6216           00501     CPFSEQ  VEL_ACTUAL
000328 EC?? F???      00502     CALL    CLEAR_MINUT
                      00503     
00032C 0E00           00504     MOVLW   .0
00032E 6E17           00505     MOVWF   UP_DOWN
000330 0E01           00506     MOVLW   .1
000332 6E16           00507     MOVWF   VEL_ACTUAL
000334 EF?? F???      00508     GOTO    SHOW_VEL_7S
000338                00509 VEL_2   
000338 0E0B           00510     MOVLW   .11
00033A 6441           00511     CPFSGT  FINAL_BOSS,0
00033C 8889           00512     BSF     LATA,4,0
                      00513     
00033E 0E02           00514     MOVLW   .2
000340 6216           00515     CPFSEQ  VEL_ACTUAL
000342 EC?? F???      00516     CALL    CLEAR_MINUT
                      00517     
000346 0E00           00518     MOVLW   .0
MPASM 5.84             NEWPIC_8B_GENERAL.ASM   4-4-2023  16:55:43         PAGE 11


LOC  OBJECT CODE     LINE SOURCE TEXT
  VALUE

000348 6E17           00519     MOVWF   UP_DOWN
00034A 0E02           00520     MOVLW   .2
00034C 6E16           00521     MOVWF   VEL_ACTUAL
00034E EF?? F???      00522     GOTO    SHOW_VEL_7S
000352                00523 VEL_3    
000352 0E0B           00524     MOVLW   .11
000354 6441           00525     CPFSGT  FINAL_BOSS,0
000356 8889           00526     BSF     LATA,4,0    
                      00527     
000358 0E03           00528     MOVLW   .3
00035A 6216           00529     CPFSEQ  VEL_ACTUAL
00035C EC?? F???      00530     CALL    CLEAR_MINUT
                      00531     
000360 0E00           00532     MOVLW   .0
000362 6E17           00533     MOVWF   UP_DOWN
000364 0E03           00534     MOVLW   .3
000366 6E16           00535     MOVWF   VEL_ACTUAL
000368 EF?? F???      00536     GOTO    SHOW_VEL_7S     
00036C                00537 VEL_01    
00036C 0E0B           00538     MOVLW   .11
00036E 6441           00539     CPFSGT  FINAL_BOSS,0
000370 9889           00540     BCF     LATA,4,0
                      00541     
000372 0E01           00542     MOVLW   .1
000374 6216           00543     CPFSEQ  VEL_ACTUAL
000376 EC?? F???      00544     CALL    CLEAR_MINUT
                      00545     
00037A 0E01           00546     MOVLW   .1
00037C 6E17           00547     MOVWF   UP_DOWN
00037E 0E01           00548     MOVLW   .1
000380 6E16           00549     MOVWF   VEL_ACTUAL
000382 EF?? F???      00550     GOTO    SHOW_VEL_7S
000386                00551 VEL_02   
000386 0E0B           00552     MOVLW   .11
000388 6441           00553     CPFSGT  FINAL_BOSS,0
00038A 9889           00554     BCF     LATA,4,0    
                      00555     
00038C 0E02           00556     MOVLW   .2
00038E 6216           00557     CPFSEQ  VEL_ACTUAL
000390 EC?? F???      00558     CALL    CLEAR_MINUT
                      00559     
000394 0E01           00560     MOVLW   .1
000396 6E17           00561     MOVWF   UP_DOWN
000398 0E02           00562     MOVLW   .2
00039A 6E16           00563     MOVWF   VEL_ACTUAL
00039C EF?? F???      00564     GOTO    SHOW_VEL_7S
0003A0                00565 VEL_03    
0003A0 0E0B           00566     MOVLW   .11
0003A2 6441           00567     CPFSGT  FINAL_BOSS,0
0003A4 9889           00568     BCF     LATA,4,0
                      00569     
0003A6 0E03           00570     MOVLW   .3
0003A8 6216           00571     CPFSEQ  VEL_ACTUAL
MPASM 5.84             NEWPIC_8B_GENERAL.ASM   4-4-2023  16:55:43         PAGE 12


LOC  OBJECT CODE     LINE SOURCE TEXT
  VALUE

0003AA EC?? F???      00572     CALL    CLEAR_MINUT
                      00573     
0003AE 0E01           00574     MOVLW   .1
0003B0 6E17           00575     MOVWF   UP_DOWN
0003B2 0E03           00576     MOVLW   .3
0003B4 6E16           00577     MOVWF   VEL_ACTUAL
0003B6 EF?? F???      00578     GOTO    SHOW_VEL_7S
                      00579     
0003BA                00580 VEL_7S      ; Controla el display 7-Segments de la Velocitat
0003BA 0E01           00581     MOVLW   .1
0003BC 6408           00582     CPFSGT  JOYy_POS,0
0003BE EF?? F???      00583     GOTO    VEL_03
                      00584     
0003C2 0E3E           00585     MOVLW   .62
0003C4 6408           00586     CPFSGT  JOYy_POS,0
0003C6 EF?? F???      00587     GOTO    VEL_02
                      00588     
0003CA 0E7B           00589     MOVLW   .123
0003CC 6408           00590     CPFSGT  JOYy_POS,0
0003CE EF?? F???      00591     GOTO    VEL_01
                      00592     
0003D2 0EFF           00593     MOVLW   .255
0003D4 6008           00594     CPFSLT  JOYy_POS,0
0003D6 EF?? F???      00595     GOTO    VEL_3
                      00596     
0003DA 0EC2           00597     MOVLW   .194
0003DC 6008           00598     CPFSLT  JOYy_POS,0
0003DE EF?? F???      00599     GOTO    VEL_2
                      00600     
0003E2 0E87           00601     MOVLW   .135
0003E4 6008           00602     CPFSLT  JOYy_POS,0
0003E6 EF?? F???      00603     GOTO    VEL_1
                      00604     
0003EA EF?? F???      00605     GOTO    VEL_0
                      00606     
0003EE                00607 SHOW_VEL_7S
                      00608     ; Segons la regió que ens trobem de l'ADC, apuntarem a una direcció de la taula.
0003EE C016 F019      00609     MOVFF    VEL_ACTUAL,NUM7
                      00610     ;MOVWF   NUM7,0
0003F2 6AF8           00611     CLRF    TBLPTRU,0
0003F4 6AF7           00612     CLRF    TBLPTRH,0
0003F6 0E20           00613     MOVLW   TAULA7S
0003F8 6EF6           00614     MOVWF   TBLPTRL,0
                      00615     
0003FA                00616 LOOP_NUM7:   ; Segons la velocitat incrementem les direccions de la taula flash.
0003FA 2AF6           00617     INCF    TBLPTRL,1,0
0003FC 2E19           00618     DECFSZ  NUM7,1,0
0003FE EF?? F???      00619     GOTO    LOOP_NUM7
000402 0008           00620     TBLRD*  ; Llegim el valor de la taula i el copiem en TABLAT.
000404 CFF5 FF8C      00621     MOVFF   TABLAT,LATD     ; Un cop estem apuntant a la direcció dessitjada, ho mostrem per el 7s.
                      00622     
000408 0012           00623     RETURN
                      00624     
MPASM 5.84             NEWPIC_8B_GENERAL.ASM   4-4-2023  16:55:43         PAGE 13


LOC  OBJECT CODE     LINE SOURCE TEXT
  VALUE

                      00625 ; Control Direcció -------------------------------------------------------------
                      00626         
00040A                00627 DIR_SERVO       ; Col·loquem el servomotor en la mateixa posició analógica del joystick actualitzant el 
                            gir a temps real.
00040A C007 F006      00628     MOVFF   JOYx_POS, POS_JOY   ; Agafem 5 bits del High.
00040E 4206           00629     RRNCF   POS_JOY,1,0         ; Rotem tres cops els bits.
000410 4206           00630     RRNCF   POS_JOY,1,0
000412 4206           00631     RRNCF   POS_JOY,1,0
000414 0E1F           00632     MOVLW   b'00011111'
000416 1606           00633     ANDWF   POS_JOY,1           ; (Ens volem quedar amb els 5 MSB, que ja hem rotat, 0-180)
000418 0E05           00634     MOVLW   .5
00041A 0206           00635     MULWF   POS_JOY,0
00041C CFF3 F009      00636     MOVFF   PRODL,POS_SERVO 
000420 0012           00637     RETURN
                      00638     
000422                00639 CENTRE_FUNC    
000422 0E00           00640     MOVLW   .0
000424 6242           00641     CPFSEQ  POS_ACTUAL,0
000426 EC?? F???      00642     CALL    CLEAR_MINUT2
                      00643     
00042A 888B           00644     BSF     LATC,4,0
00042C 8A8B           00645     BSF     LATC,5,0
                      00646     
00042E 0E00           00647     MOVLW   .0
000430 6E42           00648     MOVWF   POS_ACTUAL,0
                      00649     
000432 0012           00650     RETURN
000434                00651 DIR_0    
000434 0E01           00652     MOVLW   .1
000436 6242           00653     CPFSEQ  POS_ACTUAL,0
000438 EC?? F???      00654     CALL    CLEAR_MINUT2
                      00655     
00043C 808B           00656     BSF     LATC,0,0
                      00657     
00043E 0E01           00658     MOVLW   .1
000440 6E42           00659     MOVWF   POS_ACTUAL,0
                      00660     
000442 0012           00661     RETURN    
000444                00662 DIR_1        
000444 0E02           00663     MOVLW   .2
000446 6242           00664     CPFSEQ  POS_ACTUAL,0
000448 EC?? F???      00665     CALL    CLEAR_MINUT2
                      00666     
00044C 828B           00667     BSF     LATC,1,0
                      00668     
00044E 0E02           00669     MOVLW   .2
000450 6E42           00670     MOVWF   POS_ACTUAL,0
                      00671     
000452 0012           00672     RETURN  
000454                00673 DIR_2       
000454 0E03           00674     MOVLW   .3
000456 6242           00675     CPFSEQ  POS_ACTUAL,0
000458 EC?? F???      00676     CALL    CLEAR_MINUT2
MPASM 5.84             NEWPIC_8B_GENERAL.ASM   4-4-2023  16:55:43         PAGE 14


LOC  OBJECT CODE     LINE SOURCE TEXT
  VALUE

                      00677     
00045C 848B           00678     BSF     LATC,2,0
                      00679     
00045E 0E03           00680     MOVLW   .3
000460 6E42           00681     MOVWF   POS_ACTUAL,0
                      00682     
000462 0012           00683     RETURN  
000464                00684 DIR_3        
000464 0E01           00685     MOVLW   .1
000466 6242           00686     CPFSEQ  POS_ACTUAL,0
000468 EC?? F???      00687     CALL    CLEAR_MINUT2
                      00688     
00046C 868B           00689     BSF     LATC,3,0
                      00690     
00046E 0E01           00691     MOVLW   .1
000470 6E42           00692     MOVWF   POS_ACTUAL,0
                      00693     
000472 0012           00694     RETURN  
000474                00695 DIR_6    
                      00696     
000474 0E02           00697     MOVLW   .2
000476 6242           00698     CPFSEQ  POS_ACTUAL,0
000478 EC?? F???      00699     CALL    CLEAR_MINUT2
                      00700     
00047C 8C8B           00701     BSF     LATC,6,0
                      00702         
00047E 0E02           00703     MOVLW   .2
000480 6E42           00704     MOVWF   POS_ACTUAL,0
                      00705     
000482 0012           00706     RETURN  
000484                00707 DIR_7    
                      00708     
000484 0E03           00709     MOVLW   .3
000486 6242           00710     CPFSEQ  POS_ACTUAL,0
000488 EC?? F???      00711     CALL    CLEAR_MINUT2
                      00712     
                      00713     
00048C 8E8B           00714     BSF     LATC,7,0 
                      00715     
00048E 0E03           00716     MOVLW   .3
000490 6E42           00717     MOVWF   POS_ACTUAL,0
                      00718     
000492 0012           00719     RETURN  
000494                00720 DIR_8        
000494 0E01           00721     MOVLW   .1
000496 6242           00722     CPFSEQ  POS_ACTUAL,0
000498 EC?? F???      00723     CALL    CLEAR_MINUT2
                      00724     
00049C 808D           00725     BSF     LATE,0,0
                      00726     
00049E 0E01           00727     MOVLW   .1
0004A0 6E42           00728     MOVWF   POS_ACTUAL,0
                      00729     
MPASM 5.84             NEWPIC_8B_GENERAL.ASM   4-4-2023  16:55:43         PAGE 15


LOC  OBJECT CODE     LINE SOURCE TEXT
  VALUE

0004A2 0012           00730     RETURN      
0004A4                00731 DIR_9        
0004A4 0E02           00732     MOVLW   .2
0004A6 6242           00733     CPFSEQ  POS_ACTUAL,0
0004A8 EC?? F???      00734     CALL    CLEAR_MINUT2
                      00735     
0004AC 0E0A           00736     MOVLW   .10
0004AE 6E07           00737     MOVWF   JOYx_POS,0
                      00738     
0004B0 868A           00739     BSF     LATB,3,0
                      00740     
0004B2 0E02           00741     MOVLW   .2
0004B4 6E42           00742     MOVWF   POS_ACTUAL,0
0004B6 0012           00743     RETURN  
                      00744     
0004B8                00745 LEDS_CONTROL   
0004B8 0E01           00746     MOVLW   .1
0004BA 6407           00747     CPFSGT  JOYx_POS,0
0004BC EF?? F???      00748     GOTO    DIR_9
                      00749     
0004C0 0E0A           00750     MOVLW   .10
0004C2 6407           00751     CPFSGT  JOYx_POS,0
0004C4 EF?? F???      00752     GOTO    DIR_9
                      00753     
0004C8 0E21           00754     MOVLW   .33
0004CA 6407           00755     CPFSGT  JOYx_POS,0
0004CC EF?? F???      00756     GOTO    DIR_8
                      00757     
0004D0 0E41           00758     MOVLW   .65
0004D2 6407           00759     CPFSGT  JOYx_POS,0
0004D4 EF?? F???      00760     GOTO    DIR_7
                      00761     
0004D8 0E61           00762     MOVLW   .97
0004DA 6407           00763     CPFSGT  JOYx_POS,0
0004DC EF?? F???      00764     GOTO    DIR_6
                      00765     
0004E0 0EFF           00766     MOVLW   .255
0004E2 6007           00767     CPFSLT  JOYx_POS,0
0004E4 EF?? F???      00768     GOTO    DIR_0
                      00769     
0004E8 0EE1           00770     MOVLW   .225
0004EA 6007           00771     CPFSLT  JOYx_POS,0
0004EC EF?? F???      00772     GOTO    DIR_1
                      00773     
0004F0 0EC1           00774     MOVLW   .193
0004F2 6007           00775     CPFSLT  JOYx_POS,0
0004F4 EF?? F???      00776     GOTO    DIR_2
                      00777     
0004F8 0EA1           00778     MOVLW   .161
0004FA 6007           00779     CPFSLT  JOYx_POS,0
0004FC EF?? F???      00780     GOTO    DIR_3
                      00781     
000500 0E80           00782     MOVLW   .128
MPASM 5.84             NEWPIC_8B_GENERAL.ASM   4-4-2023  16:55:43         PAGE 16


LOC  OBJECT CODE     LINE SOURCE TEXT
  VALUE

000502 6207           00783     CPFSEQ  JOYx_POS,0
000504 EF?? F???      00784     GOTO    CENTRE_FUNC 
000508 0012           00785     RETURN
                      00786     
00050A                00787 ADC_DIRECCIO
                      00788 ; Iniciem la conversió A/D del canal AN0 --> EixX (Direcció)
00050A 0E01           00789     MOVLW   b'00000001' ; A/D Input channel AN0(000)
00050C 6EC2           00790     MOVWF   ADCON0,0
00050E 82C2           00791     BSF     ADCON0,GO_NOT_DONE,0
000510                00792 WAIT_ADC
000510 B2C2           00793     BTFSC   ADCON0,GO_NOT_DONE,0
000512 EF?? F???      00794     GOTO    WAIT_ADC
000516 CFC4 F007      00795     MOVFF   ADRESH,JOYx_POS
00051A EC?? F???      00796     CALL    LEDS_CONTROL        ; Control LEDs DIR
00051E EC?? F???      00797     CALL    DIR_SERVO           ; Control Servo DIR
000522 0012           00798     RETURN
                      00799     
000524                00800 ADC_VELOCITAT
                      00801 ; Iniciem la conversió A/D del canal AN1 --> EixY (Velocitat)
000524 0E05           00802     MOVLW   b'00000101' ; A/D Input channel AN1(001)
000526 6EC2           00803     MOVWF   ADCON0,0
000528 82C2           00804     BSF     ADCON0,GO_NOT_DONE,0
00052A                00805 WAIT_ADC1
00052A B2C2           00806     BTFSC   ADCON0,GO_NOT_DONE,0
00052C EF?? F???      00807     GOTO    WAIT_ADC1
000530 CFC4 F008      00808     MOVFF   ADRESH,JOYy_POS
000534 EC?? F???      00809     CALL    VEL_7S              ; Control 7s VEL
000538 0012           00810     RETURN
                      00811     
00053A                00812 INIT_RAM                ;Inicialitzem els punters de la RAM.
00053A 6A18           00813     CLRF    POS_RAM,0
00053C 6AE9           00814     CLRF    FSR0L,0
00053E 0E01           00815     MOVLW   0x01
000540 6EEA           00816     MOVWF   FSR0H,0
000542                00817 LOOP_RAM:               ;Bucle per a l?escriptura de la RAM.
000542 C030 FFEE      00818     MOVFF   HYPHEN,POSTINC0  ;Escribim un '-' en les 30 primeres adreces.
000546 2A18           00819     INCF    POS_RAM,1,0
000548 0E78           00820     MOVLW   .120
00054A 6418           00821     CPFSGT  POS_RAM,0 
00054C EF?? F???      00822     GOTO    LOOP_RAM
000550 6AE9           00823     CLRF    FSR0L,0         ;Una vegada s?han guardat totes les dades
000552 0E01           00824     MOVLW   0x01            ;es tornen a inicialitzar els punters. 
000554 6EEA           00825     MOVWF   FSR0H,0
000556 6A18           00826     CLRF    POS_RAM,0
000558 0012           00827     RETURN    
                      00828     
                      00829 ;*******************************************************************************
                      00830 ; MODES
                      00831 ;*******************************************************************************
                      00832         
                      00833 ; MODE MANUAL: Control del vaixell amb Joystick (Velocitat & Direcció).
00055A                00834 MODE_MANUAL
                      00835 ; Primer de tot mostrem color verd el display LED RGB.
MPASM 5.84             NEWPIC_8B_GENERAL.ASM   4-4-2023  16:55:43         PAGE 17


LOC  OBJECT CODE     LINE SOURCE TEXT
  VALUE

00055A 9A89           00836     BCF     LATA,5,0            ; Apaguem el bit RA5 (LED RecordMode) 
00055C 9689           00837     BCF     LATA,3,0            ; Apaguem el bit RA3 (LED CreuerMode)
00055E 8489           00838     BSF     LATA,2,0            ; Encenem el bit RA2 (LED ManualMode)
000560 C002 F001      00839     MOVFF   M_MANUAL,MODE_ACTUAL        ; Hem de guardar que estem al Mode Manual.
                      00840         
000564 EC?? F???      00841     CALL    ADC_DIRECCIO
000568 EC?? F???      00842     CALL    ADC_VELOCITAT
                      00843     
00056C EC?? F???      00844     CALL    LOOP_BUTTONS        ; Fem Polling entre aquest mode i els botons de canvi de mode.
000570 EF?? F???      00845     GOTO    MODE_MANUAL
                      00846     
                      00847 ;-------------------------------------------------------------------------------
                      00848     
                      00849 ; MODE CREUER: Adquirir velocitat del vaixell abans de prémer el botó.
000574                00850 MODE_CREUER
                      00851     ; Primer de tot mostrem color blau el display LED RGB.
000574 9A89           00852     BCF     LATA,5,0            ; Apaguem el bit RA5 (LED RecordMode)   
000576 9489           00853     BCF     LATA,2,0            ; Apaguem el bit RA2 (LED ManualMode)  
000578 8689           00854     BSF     LATA,3,0            ; Encenem el bit RA3 (LED CreuerMode)
00057A C003 F001      00855     MOVFF   M_CREUER,MODE_ACTUAL        ; Hem de guardar que estem al Mode Creuer.
                      00856     
00057E EC?? F???      00857     CALL    ADC_DIRECCIO
000582 EC?? F???      00858     CALL    VEL_7S
                      00859     
000586 EC?? F???      00860     CALL    LOOP_BUTTONS        ; Fem Polling entre aquest mode i els botons de canvi de mode.
00058A EF?? F???      00861     GOTO    MODE_CREUER
                      00862     
                      00863 ;-------------------------------------------------------------------------------
                      00864     
                      00865 ; MODE RECORD: Usant el botó SAVE guardem Vel&Dir del vaixell (Max 30).
00058E                00866 MODE_RECORD
                      00867     ; Primer de tot mostrem color vermell el display LED RGB.
00058E 9489           00868     BCF     LATA,2,0            ; Apaguem el bit RA2 (LED ManualMode)   
000590 9689           00869     BCF     LATA,3,0            ; Apaguem el bit RA3 (LED CreuerMode)
000592 8A89           00870     BSF     LATA,5,0            ; Encenem el bit RA5 (LED RecordMode) 
000594 C004 F001      00871     MOVFF   M_RECORD,MODE_ACTUAL        ; Hem de guardar que estem al Mode Record.
                      00872         
000598 EC?? F???      00873     CALL    ADC_DIRECCIO
00059C EC?? F???      00874     CALL    ADC_VELOCITAT
                      00875         
0005A0 A481           00876     BTFSS   PORTB,2,0           ; Esperem a que es premi el polsador Save.
0005A2 EC?? F???      00877     CALL    REBOTS_SAVE
                      00878     
0005A6 6A40           00879     CLRF    COUNT_BOSS,0
0005A8 6A41           00880     CLRF    FINAL_BOSS,0
                      00881     
0005AA 0E0C           00882     MOVLW   .12
0005AC 6037           00883     CPFSLT  COUNT_1M,0
0005AE EF?? F???      00884     GOTO    MODE_MANUAL
                      00885     
0005B2 EC?? F???      00886     CALL    LOOP_BUTTONS        ; Fem Polling entre aquest mode i els botons de canvi de mode.
0005B6 EF?? F???      00887     GOTO    MODE_RECORD
                      00888     
MPASM 5.84             NEWPIC_8B_GENERAL.ASM   4-4-2023  16:55:43         PAGE 18


LOC  OBJECT CODE     LINE SOURCE TEXT
  VALUE

                      00889 ;-------------------------------------------------------------------------------
                      00890 
                      00891 ; MODE PILOT AUTOMATIC: Reprodueix la última ruta guardada.
0005BA                00892 MODE_PILOT    
                      00893     ; Primer de tot mostrem color blanc el display LED RGB (Encenem els 3).
0005BA 8489           00894     BSF     LATA,2,0            ; Encenem el bit RA2 (LED ManualMode) 
0005BC 8689           00895     BSF     LATA,3,0            ; Encenem el bit RA3 (LED CreuerMode) 
0005BE 8A89           00896     BSF     LATA,5,0            ; Encenem el bit RA5 (LED RecordMode)
                      00897     ;MOVFF   M_PILOT,MODE_ACTUAL        ; Hem de guardar que estem al Mode Pilot Automàtic.
                      00898     
0005C0 6A29           00899     CLRF    POS_RAM_AUX,0
0005C2 C029 FFE9      00900     MOVFF   POS_RAM_AUX,FSR0L
0005C6 0E01           00901     MOVLW   0x01
0005C8 6EEA           00902     MOVWF   FSR0H,0
                      00903     
0005CA 0E00           00904     MOVLW   .0
0005CC 6218           00905     CPFSEQ  POS_RAM,0
0005CE EC?? F???      00906     CALL    READ_RAM
                      00907     
0005D2 EF?? F???      00908     GOTO    MODE_MANUAL
                      00909 
                      00910 ;*******************************************************************************
                      00911 ; MAIN
                      00912 ;*******************************************************************************
                      00913     
0005D6                00914 LOOP_BUTTONS:   ; Fem polling per consultar si ens premen algun dels polsadors.
0005D6 6A32           00915     CLRF    COUNT_1S,0
0005D8 A081           00916     BTFSS   PORTB,0,0           ; Esperem a que es premi el polsador ManualMode.
0005DA EF?? F???      00917     GOTO    REBOTS_MANUAL
0005DE A281           00918     BTFSS   PORTB,1,0           ; Esperem a que es premi el polsador RecordMode.
0005E0 EF?? F???      00919     GOTO    REBOTS_RECORD 
0005E4 0012           00920     RETURN
                      00921     
0005E6                00922 MAIN
0005E6 EC?? F???      00923     CALL    INIT_PORTS
0005EA EC?? F???      00924     CALL    INIT_INTERRUPTS
0005EE EC?? F???      00925     CALL    INIT_VARS
0005F2 EC?? F???      00926     CALL    INIT_ADC
0005F6 EC?? F???      00927     CALL    INIT_T0
0005FA EC?? F???      00928     CALL    INIT_POINTERS
0005FE EC?? F???      00929     CALL    INIT_RAM
000602 EF?? F???      00930     GOTO    MODE_MANUAL         ; Iniciem en sistema en el MODE MANUAL
000606                00931 LOOP:
000606 EC?? F???      00932     CALL    LOOP_BUTTONS
00060A EF?? F???      00933     GOTO    LOOP
                      00934     END
MPASM 5.84             NEWPIC_8B_GENERAL.ASM   4-4-2023  16:55:43         PAGE 19


SYMBOL TABLE
  LABEL                             VALUE 

A                                 00000000
ABDEN                             00000000
ABDOVF                            00000007
ACCESS                            00000000
ACKDT                             00000005
ACKEN                             00000004
ACKSTAT                           00000006
ACQT0                             00000003
ACQT1                             00000004
ACQT2                             00000005
ADCON0                            00000FC2
ADCON1                            00000FC1
ADCON2                            00000FC0
ADCS0                             00000000
ADCS1                             00000001
ADCS2                             00000002
ADC_DIRECCIO                      0000050A
ADC_VELOCITAT                     00000524
ADDEN                             00000003
ADEN                              00000003
ADFM                              00000007
ADIE                              00000006
ADIF                              00000006
ADIP                              00000006
ADMSK1                            00000001
ADMSK2                            00000002
ADMSK3                            00000003
ADMSK4                            00000004
ADMSK5                            00000005
ADON                              00000000
ADRES                             00000FC3
ADRESH                            00000FC4
ADRESL                            00000FC3
AN0                               00000000
AN1                               00000001
AN10                              00000001
AN11                              00000004
AN12                              00000000
AN2                               00000002
AN3                               00000003
AN4                               00000005
AN5                               00000000
AN6                               00000001
AN7                               00000002
AN8                               00000002
AN9                               00000003
BANKED                            00000001
BAUDCON                           00000FB8
BAUDCTL                           00000FB8
BCLIE                             00000003
BCLIF                             00000003
BCLIP                             00000003
BF                                00000000
MPASM 5.84             NEWPIC_8B_GENERAL.ASM   4-4-2023  16:55:43         PAGE 20


SYMBOL TABLE
  LABEL                             VALUE 

BGST                              00000005
BOR                               00000000
BRG16                             00000003
BRGH                              00000002
BSR                               00000FE0
C                                 00000000
C1INV                             00000004
C1N                               00000000
C1OUT_CMCON                       00000006
C1OUT_PORTA                       00000004
C1P                               00000003
C2INV                             00000005
C2N                               00000001
C2OUT_CMCON                       00000007
C2OUT_PORTA                       00000005
C2P                               00000002
CCP1                              00000002
CCP1CON                           00000FBD
CCP1IE                            00000002
CCP1IF                            00000002
CCP1IP                            00000002
CCP1M0                            00000000
CCP1M1                            00000001
CCP1M2                            00000002
CCP1M3                            00000003
CCP1X                             00000005
CCP1Y                             00000004
CCP2CON                           00000FBA
CCP2IE                            00000000
CCP2IF                            00000000
CCP2IP                            00000000
CCP2M0                            00000000
CCP2M1                            00000001
CCP2M2                            00000002
CCP2M3                            00000003
CCP2X                             00000005
CCP2Y                             00000004
CCP2_PORTB                        00000003
CCP2_PORTC                        00000001
CCPR1                             00000FBE
CCPR1H                            00000FBF
CCPR1L                            00000FBE
CCPR2                             00000FBB
CCPR2H                            00000FBC
CCPR2L                            00000FBB
CENTRE_FUNC                       00000422
CFGS                              00000006
CHECK_RECORD                      00000292
CHS0                              00000002
CHS1                              00000003
CHS2                              00000004
CHS3                              00000005
CIS                               00000003
MPASM 5.84             NEWPIC_8B_GENERAL.ASM   4-4-2023  16:55:43         PAGE 21


SYMBOL TABLE
  LABEL                             VALUE 

CK                                00000006
CKE                               00000006
CKP                               00000004
CLEAR_MINUT                       000002F2
CLEAR_MINUT2                      000002F8
CLKI                              00000007
CLKO                              00000006
CM0                               00000000
CM1                               00000001
CM2                               00000002
CMCON                             00000FB4
CMIE                              00000006
CMIF                              00000006
CMIP                              00000006
COUNT_1M                          00000037
COUNT_1S                          00000032
COUNT_ALARM                       00000033
COUNT_AUX                         00000038
COUNT_BOSS                        00000040
CREN                              00000004
CS                                00000002
CSRC                              00000007
CVR0                              00000000
CVR1                              00000001
CVR2                              00000002
CVR3                              00000003
CVRCON                            00000FB5
CVREF                             00000002
CVREN                             00000007
CVROE                             00000006
CVRR                              00000005
CVRSS                             00000004
D                                 00000005
DC                                00000001
DC1B0                             00000004
DC1B1                             00000005
DC2B0                             00000004
DC2B1                             00000005
DDRA                              TRISA
DDRB                              TRISB
DDRC                              TRISC
DDRD                              TRISD
DDRE                              TRISE
DELAY                             00000034
DELAY_AUX                         00000035
DIR_0                             00000434
DIR_1                             00000444
DIR_2                             00000454
DIR_3                             00000464
DIR_6                             00000474
DIR_7                             00000484
DIR_8                             00000494
DIR_9                             000004A4
MPASM 5.84             NEWPIC_8B_GENERAL.ASM   4-4-2023  16:55:43         PAGE 22


SYMBOL TABLE
  LABEL                             VALUE 

DIR_SERVO                         0000040A
DONE                              00000001
D_A                               00000005
D_NOT_A                           00000005
ECCP1AS                           00000FB6
ECCP1CON                          00000FBD
ECCP1DEL                          00000FB7
ECCPAS0                           00000004
ECCPAS1                           00000005
ECCPAS2                           00000006
ECCPASE                           00000007
EEADR                             00000FA9
EECON1                            00000FA6
EECON2                            00000FA7
EEDATA                            00000FA8
EEIE                              00000004
EEIF                              00000004
EEIP                              00000004
EEPGD                             00000007
EPILEPSY                          00000039
ESPERA                            000002A6
ESPERA_REBOTS                     0000029E
FAST                              00000001
FERR                              00000002
FINAL_BOSS                        00000041
FINAL_FIGHT2                      00000140
FLT0                              00000000
FLTS                              00000002
FREE                              00000004
FSR0                              00000000
FSR0H                             00000FEA
FSR0L                             00000FE9
FSR1                              00000001
FSR1H                             00000FE2
FSR1L                             00000FE1
FSR2                              00000002
FSR2H                             00000FDA
FSR2L                             00000FD9
GCEN                              00000007
GIE                               00000007
GIEH                              00000007
GIEL                              00000006
GIE_GIEH                          00000007
GO                                00000001
GO_DONE                           00000001
GO_NOT_DONE                       00000001
HIGH_RSI                          0000015E
HIGH_TIME_M                       00000014
HIGH_TIME_S                       00000012
HLVDCON                           00000FD2
HLVDEN                            00000004
HLVDIE                            00000002
HLVDIF                            00000002
MPASM 5.84             NEWPIC_8B_GENERAL.ASM   4-4-2023  16:55:43         PAGE 23


SYMBOL TABLE
  LABEL                             VALUE 

HLVDIN                            00000005
HLVDIP                            00000002
HLVDL0                            00000000
HLVDL1                            00000001
HLVDL2                            00000002
HLVDL3                            00000003
HYPHEN                            00000030
IBF                               00000007
IBOV                              00000005
IDLEN                             00000007
INCREMENT_BOSS                    00000158
INCREMENT_COUNT                   00000152
INC_PWM                           00000010
INDF0                             00000FEF
INDF1                             00000FE7
INDF2                             00000FDF
INIT_ADC                          000000A0
INIT_INTERRUPTS                   00000054
INIT_POINTERS                     000000BC
INIT_PORTS                        00000024
INIT_RAM                          0000053A
INIT_T0                           000000AE
INIT_VARS                         0000005E
INT0                              00000000
INT0E                             00000004
INT0F                             00000001
INT0IE                            00000004
INT0IF                            00000001
INT1                              00000001
INT1E                             00000003
INT1F                             00000000
INT1IE                            00000003
INT1IF                            00000000
INT1IP                            00000006
INT1P                             00000006
INT2                              00000002
INT2E                             00000004
INT2F                             00000001
INT2IE                            00000004
INT2IF                            00000001
INT2IP                            00000007
INT2P                             00000007
INTCON                            00000FF2
INTCON2                           00000FF1
INTCON3                           00000FF0
INTEDG0                           00000006
INTEDG1                           00000005
INTEDG2                           00000004
INTSRC                            00000007
IOFS                              00000002
IPEN                              00000007
IPR1                              00000F9F
IPR2                              00000FA2
MPASM 5.84             NEWPIC_8B_GENERAL.ASM   4-4-2023  16:55:43         PAGE 24


SYMBOL TABLE
  LABEL                             VALUE 

IRCF0                             00000004
IRCF1                             00000005
IRCF2                             00000006
IRVST                             00000005
JOYx_POS                          00000007
JOYy_POS                          00000008
KBI0                              00000004
KBI1                              00000005
KBI2                              00000006
KBI3                              00000007
LATA                              00000F89
LATA0                             00000000
LATA1                             00000001
LATA2                             00000002
LATA3                             00000003
LATA4                             00000004
LATA5                             00000005
LATA6                             00000006
LATA7                             00000007
LATB                              00000F8A
LATB0                             00000000
LATB1                             00000001
LATB2                             00000002
LATB3                             00000003
LATB4                             00000004
LATB5                             00000005
LATB6                             00000006
LATB7                             00000007
LATC                              00000F8B
LATC0                             00000000
LATC1                             00000001
LATC2                             00000002
LATC3                             00000003
LATC4                             00000004
LATC5                             00000005
LATC6                             00000006
LATC7                             00000007
LATD                              00000F8C
LATD0                             00000000
LATD1                             00000001
LATD2                             00000002
LATD3                             00000003
LATD4                             00000004
LATD5                             00000005
LATD6                             00000006
LATD7                             00000007
LATE                              00000F8D
LATE0                             00000000
LATE1                             00000001
LATE2                             00000002
LEDS_CONTROL                      000004B8
LOOP                              00000606
LOOP_BUTTONS                      000005D6
MPASM 5.84             NEWPIC_8B_GENERAL.ASM   4-4-2023  16:55:43         PAGE 25


SYMBOL TABLE
  LABEL                             VALUE 

LOOP_INC_PWM                      0000012C
LOOP_MOTOR                        000001D0
LOOP_NUM7                         000003FA
LOOP_RAM                          00000542
LOOP_SERVO                        0000019E
LOW_TIME_M                        00000013
LOW_TIME_S                        00000011
LOW_TIME_aux                      00000015
LVDCON                            00000FD2
LVDEN                             00000004
LVDIE                             00000002
LVDIF                             00000002
LVDIP                             00000002
LVDL0                             00000000
LVDL1                             00000001
LVDL2                             00000002
LVDL3                             00000003
LVV0                              00000000
LVV1                              00000001
LVV2                              00000002
LVV3                              00000003
MAIN                              000005E6
MCLR                              00000003
MODE_ACTUAL                       00000001
MODE_CREUER                       00000574
MODE_MANUAL                       0000055A
MODE_PILOT                        000005BA
MODE_RECORD                       0000058E
MOVE_SERVO                        00000128
M_CREUER                          00000003
M_MANUAL                          00000002
M_PILOT                           00000005
M_RECORD                          00000004
N                                 00000004
NOT_A                             00000005
NOT_ADDRESS                       00000005
NOT_BOR                           00000000
NOT_CS                            00000002
NOT_DONE                          00000001
NOT_MCLR                          00000003
NOT_PD                            00000002
NOT_POR                           00000001
NOT_RBPU                          00000007
NOT_RD                            00000000
NOT_RI                            00000004
NOT_SS                            00000005
NOT_T1SYNC                        00000002
NOT_T3SYNC                        00000002
NOT_TO                            00000003
NOT_W                             00000002
NOT_WR                            00000001
NOT_WRITE                         00000002
NUM7                              00000019
MPASM 5.84             NEWPIC_8B_GENERAL.ASM   4-4-2023  16:55:43         PAGE 26


SYMBOL TABLE
  LABEL                             VALUE 

OBF                               00000006
OERR                              00000001
OSC1                              00000007
OSC2                              00000006
OSCCON                            00000FD3
OSCFIE                            00000007
OSCFIF                            00000007
OSCFIP                            00000007
OSCTUNE                           00000F9B
OSTS                              00000003
OV                                00000003
P                                 00000004
P1A                               00000002
P1B                               00000005
P1C                               00000006
P1D                               00000007
P1M0                              00000006
P1M1                              00000007
PARTY                             0000013A
PC                                00000FF9
PCFG0                             00000000
PCFG1                             00000001
PCFG2                             00000002
PCFG3                             00000003
PCL                               00000FF9
PCLATH                            00000FFA
PCLATU                            00000FFB
PD                                00000002
PDC0                              00000000
PDC1                              00000001
PDC2                              00000002
PDC3                              00000003
PDC4                              00000004
PDC5                              00000005
PDC6                              00000006
PEIE                              00000006
PEIE_GIEL                         00000006
PEN                               00000002
PGC                               00000006
PGD                               00000007
PGM                               00000005
PIE1                              00000F9D
PIE2                              00000FA0
PIR1                              00000F9E
PIR2                              00000FA1
PLLEN                             00000006
PLUSW0                            00000FEB
PLUSW1                            00000FE3
PLUSW2                            00000FDB
POR                               00000001
PORTA                             00000F80
PORTB                             00000F81
PORTC                             00000F82
MPASM 5.84             NEWPIC_8B_GENERAL.ASM   4-4-2023  16:55:43         PAGE 27


SYMBOL TABLE
  LABEL                             VALUE 

PORTD                             00000F83
PORTE                             00000F84
POSTDEC0                          00000FED
POSTDEC1                          00000FE5
POSTDEC2                          00000FDD
POSTINC0                          00000FEE
POSTINC1                          00000FE6
POSTINC2                          00000FDE
POS_ACTUAL                        00000042
POS_JOY                           00000006
POS_RAM                           00000018
POS_RAM_AUX                       00000029
POS_SERVO                         00000009
PR2                               00000FCB
PREINC0                           00000FEC
PREINC1                           00000FE4
PREINC2                           00000FDC
PRE_RECORD                        00000272
PROD                              00000FF3
PRODH                             00000FF4
PRODL                             00000FF3
PRSEN                             00000007
PSA                               00000003
PSP0                              00000000
PSP1                              00000001
PSP2                              00000002
PSP3                              00000003
PSP4                              00000004
PSP5                              00000005
PSP6                              00000006
PSP7                              00000007
PSPIE                             00000007
PSPIF                             00000007
PSPIP                             00000007
PSPMODE                           00000004
PSSAC0                            00000002
PSSAC1                            00000003
PSSBD0                            00000000
PSSBD1                            00000001
PWM1CON                           00000FB7
R                                 00000002
RA0                               00000000
RA1                               00000001
RA2                               00000002
RA3                               00000003
RA4                               00000004
RA5                               00000005
RA6                               00000006
RA7                               00000007
RB0                               00000000
RB1                               00000001
RB2                               00000002
RB3                               00000003
MPASM 5.84             NEWPIC_8B_GENERAL.ASM   4-4-2023  16:55:43         PAGE 28


SYMBOL TABLE
  LABEL                             VALUE 

RB4                               00000004
RB5                               00000005
RB6                               00000006
RB7                               00000007
RBIE                              00000003
RBIF                              00000000
RBIP                              00000000
RBPU                              00000007
RC0                               00000000
RC1                               00000001
RC2                               00000002
RC3                               00000003
RC4                               00000004
RC5                               00000005
RC6                               00000006
RC7                               00000007
RCEN                              00000003
RCIDL                             00000006
RCIE                              00000005
RCIF                              00000005
RCIP                              00000005
RCMT                              00000006
RCON                              00000FD0
RCREG                             00000FAE
RCSTA                             00000FAB
RD                                00000000
RD0                               00000000
RD1                               00000001
RD16                              00000007
RD2                               00000002
RD3                               00000003
RD4                               00000004
RD5                               00000005
RD6                               00000006
RD7                               00000007
RE0                               00000000
RE1                               00000001
RE2                               00000002
RE3                               00000003
READ_RAM                          00000210
REBOTS                            00000031
REBOTS_MANUAL                     000002B0
REBOTS_RECORD                     000002C2
REBOTS_SAVE                       000002DE
RI                                00000004
RSEN                              00000001
RSI_T0                            00000166
RX                                00000007
RX9                               00000006
RX9D                              00000000
RXDTP                             00000005
R_NOT_W                           00000002
R_W                               00000002
MPASM 5.84             NEWPIC_8B_GENERAL.ASM   4-4-2023  16:55:43         PAGE 29


SYMBOL TABLE
  LABEL                             VALUE 

S                                 00000003
SAVE_ROUTE                        000001E6
SBOREN                            00000006
SCK                               00000003
SCKP                              00000004
SCL                               00000003
SCS0                              00000000
SCS1                              00000001
SDA                               00000004
SDI                               00000004
SDO                               00000005
SEN                               00000000
SENDB                             00000003
SHOW_VEL_7S                       000003EE
SMP                               00000007
SP0                               00000000
SP1                               00000001
SP2                               00000002
SP3                               00000003
SP4                               00000004
SPBRG                             00000FAF
SPBRGH                            00000FB0
SPEN                              00000007
SREN                              00000005
SSPADD                            00000FC8
SSPBUF                            00000FC9
SSPCON1                           00000FC6
SSPCON2                           00000FC5
SSPEN                             00000005
SSPIE                             00000003
SSPIF                             00000003
SSPIP                             00000003
SSPM0                             00000000
SSPM1                             00000001
SSPM2                             00000002
SSPM3                             00000003
SSPOV                             00000006
SSPSTAT                           00000FC7
STATUS                            00000FD8
STKFUL                            00000007
STKOVF                            00000007
STKPTR                            00000FFC
STKUNF                            00000006
SWDTE                             00000000
SWDTEN                            00000000
SYNC                              00000004
T016BIT                           00000006
T08BIT                            00000006
T0CKI                             00000004
T0CON                             00000FD5
T0CS                              00000005
T0IE                              00000005
T0IF                              00000002
MPASM 5.84             NEWPIC_8B_GENERAL.ASM   4-4-2023  16:55:43         PAGE 30


SYMBOL TABLE
  LABEL                             VALUE 

T0PS0                             00000000
T0PS1                             00000001
T0PS2                             00000002
T0SE                              00000004
T13CKI                            00000000
T1CKI                             00000000
T1CKPS0                           00000004
T1CKPS1                           00000005
T1CON                             00000FCD
T1OSCEN                           00000003
T1OSI                             00000001
T1OSO                             00000000
T1RUN                             00000006
T1SYNC                            00000002
T2CKPS0                           00000000
T2CKPS1                           00000001
T2CON                             00000FCA
T2OUTPS0                          00000003
T2OUTPS1                          00000004
T2OUTPS2                          00000005
T2OUTPS3                          00000006
T3CCP1                            00000003
T3CCP2                            00000006
T3CKPS0                           00000004
T3CKPS1                           00000005
T3CON                             00000FB1
T3SYNC                            00000002
TABLAT                            00000FF5
TAULA7S                           00000020
TBLPTR                            00000FF6
TBLPTRH                           00000FF7
TBLPTRL                           00000FF6
TBLPTRU                           00000FF8
TIME_VEL_0                        000000DA
TIME_VEL_1                        000000EC
TIME_VEL_2                        00000100
TIME_VEL_3                        00000114
TMR0                              00000FD6
TMR0H                             00000FD7
TMR0IE                            00000005
TMR0IF                            00000002
TMR0IP                            00000002
TMR0L                             00000FD6
TMR0ON                            00000007
TMR1                              00000FCE
TMR1CS                            00000001
TMR1H                             00000FCF
TMR1IE                            00000000
TMR1IF                            00000000
TMR1IP                            00000000
TMR1L                             00000FCE
TMR1ON                            00000000
TMR2                              00000FCC
MPASM 5.84             NEWPIC_8B_GENERAL.ASM   4-4-2023  16:55:43         PAGE 31


SYMBOL TABLE
  LABEL                             VALUE 

TMR2IE                            00000001
TMR2IF                            00000001
TMR2IP                            00000001
TMR2ON                            00000002
TMR3                              00000FB2
TMR3CS                            00000001
TMR3H                             00000FB3
TMR3IE                            00000001
TMR3IF                            00000001
TMR3IP                            00000001
TMR3L                             00000FB2
TMR3ON                            00000000
TO                                00000003
TOGGLE_MANUAL                     0000025A
TOGGLE_RECORD                     00000280
TOS                               00000FFD
TOSH                              00000FFE
TOSL                              00000FFD
TOSU                              00000FFF
TOUTPS0                           00000003
TOUTPS1                           00000004
TOUTPS2                           00000005
TOUTPS3                           00000006
TRISA                             00000F92
TRISA0                            00000000
TRISA1                            00000001
TRISA2                            00000002
TRISA3                            00000003
TRISA4                            00000004
TRISA5                            00000005
TRISA6                            00000006
TRISA7                            00000007
TRISB                             00000F93
TRISB0                            00000000
TRISB1                            00000001
TRISB2                            00000002
TRISB3                            00000003
TRISB4                            00000004
TRISB5                            00000005
TRISB6                            00000006
TRISB7                            00000007
TRISC                             00000F94
TRISC0                            00000000
TRISC1                            00000001
TRISC2                            00000002
TRISC3                            00000003
TRISC4                            00000004
TRISC5                            00000005
TRISC6                            00000006
TRISC7                            00000007
TRISD                             00000F95
TRISD0                            00000000
TRISD1                            00000001
MPASM 5.84             NEWPIC_8B_GENERAL.ASM   4-4-2023  16:55:43         PAGE 32


SYMBOL TABLE
  LABEL                             VALUE 

TRISD2                            00000002
TRISD3                            00000003
TRISD4                            00000004
TRISD5                            00000005
TRISD6                            00000006
TRISD7                            00000007
TRISE                             00000F96
TRISE0                            00000000
TRISE1                            00000001
TRISE2                            00000002
TRMT                              00000001
TUN0                              00000000
TUN1                              00000001
TUN2                              00000002
TUN3                              00000003
TUN4                              00000004
TX                                00000006
TX9                               00000006
TX9D                              00000000
TXCKP                             00000004
TXEN                              00000005
TXIE                              00000004
TXIF                              00000004
TXIP                              00000004
TXREG                             00000FAD
TXSTA                             00000FAC
UA                                00000001
UP_DOWN                           00000017
VCFG0                             00000004
VCFG1                             00000005
VDIRMAG                           00000007
VEL_0                             00000304
VEL_01                            0000036C
VEL_02                            00000386
VEL_03                            000003A0
VEL_1                             0000031E
VEL_2                             00000338
VEL_3                             00000352
VEL_7S                            000003BA
VEL_ACTUAL                        00000016
VEL_DIRECCIO                      000000CC
VPP                               00000003
VREFM                             00000002
VREFP                             00000003
W                                 00000000
WAIT_ADC                          00000510
WAIT_ADC1                         0000052A
WAIT_COUNT                        00000232
WAIT_DELAY                        0000023A
WAIT_MANUAL                       000002B4
WAIT_RECORD                       000002C8
WAIT_SAVE                         000002E2
WCOL                              00000007
MPASM 5.84             NEWPIC_8B_GENERAL.ASM   4-4-2023  16:55:43         PAGE 33


SYMBOL TABLE
  LABEL                             VALUE 

WDTCON                            00000FD1
WR                                00000001
WREG                              00000FE8
WREN                              00000002
WRERR                             00000003
WUE                               00000001
Z                                 00000002
_BBSIZ_BB1K_4L                    000000FF
_BBSIZ_BB256_4L                   000000CF
_BBSIZ_BB512_4L                   000000DF
_BORV_0_2L                        000000E7
_BORV_1_2L                        000000EF
_BORV_2_2L                        000000F7
_BORV_3_2L                        000000FF
_BOR_NOSLP_2L                     000000FD
_BOR_OFF_2L                       000000F9
_BOR_ON_2L                        000000FF
_BOR_SOFT_2L                      000000FB
_CCP2MX_RB3_3H                    000000FE
_CCP2MX_RC1_3H                    000000FF
_CONFIG1H                         00300001
_CONFIG2H                         00300003
_CONFIG2L                         00300002
_CONFIG3H                         00300005
_CONFIG4L                         00300006
_CONFIG5H                         00300009
_CONFIG5L                         00300008
_CONFIG6H                         0030000B
_CONFIG6L                         0030000A
_CONFIG7H                         0030000D
_CONFIG7L                         0030000C
_CP0_OFF_5L                       000000FF
_CP0_ON_5L                        000000FE
_CP1_OFF_5L                       000000FF
_CP1_ON_5L                        000000FD
_CPB_OFF_5H                       000000FF
_CPB_ON_5H                        000000BF
_CPD_OFF_5H                       000000FF
_CPD_ON_5H                        0000007F
_DEBUG_OFF_4L                     000000FF
_DEBUG_ON_4L                      0000007F
_DEVID1                           003FFFFE
_DEVID2                           003FFFFF
_EBTR0_OFF_7L                     000000FF
_EBTR0_ON_7L                      000000FE
_EBTR1_OFF_7L                     000000FF
_EBTR1_ON_7L                      000000FD
_EBTRB_OFF_7H                     000000FF
_EBTRB_ON_7H                      000000BF
_FCMEN_OFF_1H                     000000BF
_FCMEN_ON_1H                      000000FF
_IDLOC0                           00200000
_IDLOC1                           00200001
MPASM 5.84             NEWPIC_8B_GENERAL.ASM   4-4-2023  16:55:43         PAGE 34


SYMBOL TABLE
  LABEL                             VALUE 

_IDLOC2                           00200002
_IDLOC3                           00200003
_IDLOC4                           00200004
_IDLOC5                           00200005
_IDLOC6                           00200006
_IDLOC7                           00200007
_IESO_OFF_1H                      0000007F
_IESO_ON_1H                       000000FF
_LPT1OSC_OFF_3H                   000000FB
_LPT1OSC_ON_3H                    000000FF
_LVP_OFF_4L                       000000FB
_LVP_ON_4L                        000000FF
_MCLRE_OFF_3H                     0000007F
_MCLRE_ON_3H                      000000FF
_OSC_ECIO_1H                      000000F5
_OSC_EC_1H                        000000F4
_OSC_HSPLL_1H                     000000F6
_OSC_HS_1H                        000000F2
_OSC_INTIO1_1H                    000000F9
_OSC_INTIO2_1H                    000000F8
_OSC_LP_1H                        000000F0
_OSC_RCIO_1H                      000000F7
_OSC_RC_1H                        000000F3
_OSC_XT_1H                        000000F1
_PBADEN_ANA_3H                    000000FF
_PBADEN_DIG_3H                    000000FD
_PWRT_OFF_2L                      000000FF
_PWRT_ON_2L                       000000FE
_STVREN_OFF_4L                    000000FE
_STVREN_ON_4L                     000000FF
_WDTPS_1024_2H                    000000F5
_WDTPS_128_2H                     000000EF
_WDTPS_16384_2H                   000000FD
_WDTPS_16_2H                      000000E9
_WDTPS_1_2H                       000000E1
_WDTPS_2048_2H                    000000F7
_WDTPS_256_2H                     000000F1
_WDTPS_2_2H                       000000E3
_WDTPS_32768_2H                   000000FF
_WDTPS_32_2H                      000000EB
_WDTPS_4096_2H                    000000F9
_WDTPS_4_2H                       000000E5
_WDTPS_512_2H                     000000F3
_WDTPS_64_2H                      000000ED
_WDTPS_8192_2H                    000000FB
_WDTPS_8_2H                       000000E7
_WDT_OFF_2H                       000000FE
_WDT_ON_2H                        000000FF
_WRT0_OFF_6L                      000000FF
_WRT0_ON_6L                       000000FE
_WRT1_OFF_6L                      000000FF
_WRT1_ON_6L                       000000FD
_WRTB_OFF_6H                      000000FF
MPASM 5.84             NEWPIC_8B_GENERAL.ASM   4-4-2023  16:55:43         PAGE 35


SYMBOL TABLE
  LABEL                             VALUE 

_WRTB_ON_6H                       000000BF
_WRTC_OFF_6H                      000000FF
_WRTC_ON_6H                       000000DF
_WRTD_OFF_6H                      000000FF
_WRTD_ON_6H                       0000007F
_XINST_OFF_4L                     000000BF
_XINST_ON_4L                      000000FF
__18F4321                         00000001

Errors   :     0
Warnings :     1 reported,     0 suppressed
Messages :     0 reported,     0 suppressed

